; ModuleID = '38/134.c'
source_filename = "38/134.c"
target datalayout = "e-m:e-p270:32:32-p271:32:32-p272:64:64-i64:64-f80:128-n8:16:32:64-S128"
target triple = "x86_64-pc-linux-gnu"

@.str = private unnamed_addr constant [3 x i8] c"%d\00", align 1
@.str.1 = private unnamed_addr constant [4 x i8] c"%lf\00", align 1
@.str.2 = private unnamed_addr constant [7 x i8] c"%.5lf\0A\00", align 1

; Function Attrs: noinline nounwind uwtable
define dso_local i32 @main() #0 {
  %1 = alloca i32, align 4
  %2 = alloca i32, align 4
  %3 = alloca i32, align 4
  %4 = alloca i32, align 4
  %5 = alloca i32, align 4
  %6 = alloca [101 x double], align 16
  %7 = alloca double, align 8
  %8 = alloca double, align 8
  %9 = alloca double, align 8
  %10 = alloca double*, align 8
  %11 = alloca double, align 8
  store i32 0, i32* %1, align 4
  %12 = bitcast [101 x double]* %6 to i8*
  call void @llvm.memset.p0i8.i64(i8* align 16 %12, i8 0, i64 808, i1 false)
  store double 0.000000e+00, double* %7, align 8
  %13 = getelementptr inbounds [101 x double], [101 x double]* %6, i64 0, i64 0
  store double* %13, double** %10, align 8
  store double 0.000000e+00, double* %11, align 8
  %14 = call i32 (i8*, ...) @__isoc99_scanf(i8* getelementptr inbounds ([3 x i8], [3 x i8]* @.str, i64 0, i64 0), i32* %2)
  store i32 1, i32* %4, align 4
  br label %15

15:                                               ; preds = %79, %0
  %16 = load i32, i32* %4, align 4
  %17 = load i32, i32* %2, align 4
  %18 = icmp sle i32 %16, %17
  br i1 %18, label %19, label %82

19:                                               ; preds = %15
  %20 = call i32 (i8*, ...) @__isoc99_scanf(i8* getelementptr inbounds ([3 x i8], [3 x i8]* @.str, i64 0, i64 0), i32* %3)
  store i32 0, i32* %5, align 4
  br label %21

21:                                               ; preds = %37, %19
  %22 = load i32, i32* %5, align 4
  %23 = load i32, i32* %3, align 4
  %24 = sub nsw i32 %23, 1
  %25 = icmp sle i32 %22, %24
  br i1 %25, label %26, label %40

26:                                               ; preds = %21
  %27 = load i32, i32* %5, align 4
  %28 = sext i32 %27 to i64
  %29 = getelementptr inbounds [101 x double], [101 x double]* %6, i64 0, i64 %28
  %30 = call i32 (i8*, ...) @__isoc99_scanf(i8* getelementptr inbounds ([4 x i8], [4 x i8]* @.str.1, i64 0, i64 0), double* %29)
  %31 = load i32, i32* %5, align 4
  %32 = sext i32 %31 to i64
  %33 = getelementptr inbounds [101 x double], [101 x double]* %6, i64 0, i64 %32
  %34 = load double, double* %33, align 8
  %35 = load double, double* %7, align 8
  %36 = fadd double %35, %34
  store double %36, double* %7, align 8
  br label %37

37:                                               ; preds = %26
  %38 = load i32, i32* %5, align 4
  %39 = add nsw i32 %38, 1
  store i32 %39, i32* %5, align 4
  br label %21

40:                                               ; preds = %21
  %41 = load double, double* %7, align 8
  %42 = load i32, i32* %3, align 4
  %43 = sitofp i32 %42 to double
  %44 = fdiv double %41, %43
  store double %44, double* %8, align 8
  store double 0.000000e+00, double* %7, align 8
  store i32 0, i32* %5, align 4
  br label %45

45:                                               ; preds = %50, %40
  %46 = load i32, i32* %5, align 4
  %47 = load i32, i32* %3, align 4
  %48 = sub nsw i32 %47, 1
  %49 = icmp sle i32 %46, %48
  br i1 %49, label %50, label %70

50:                                               ; preds = %45
  %51 = load double*, double** %10, align 8
  %52 = load i32, i32* %5, align 4
  %53 = sext i32 %52 to i64
  %54 = getelementptr inbounds double, double* %51, i64 %53
  %55 = load double, double* %54, align 8
  %56 = load double, double* %8, align 8
  %57 = fsub double %55, %56
  %58 = load double*, double** %10, align 8
  %59 = load i32, i32* %5, align 4
  %60 = sext i32 %59 to i64
  %61 = getelementptr inbounds double, double* %58, i64 %60
  %62 = load double, double* %61, align 8
  %63 = load double, double* %8, align 8
  %64 = fsub double %62, %63
  %65 = fmul double %57, %64
  %66 = load double, double* %11, align 8
  %67 = fadd double %66, %65
  store double %67, double* %11, align 8
  %68 = load i32, i32* %5, align 4
  %69 = add nsw i32 %68, 1
  store i32 %69, i32* %5, align 4
  br label %45

70:                                               ; preds = %45
  %71 = load double, double* %11, align 8
  %72 = load i32, i32* %3, align 4
  %73 = sitofp i32 %72 to double
  %74 = fdiv double %71, %73
  %75 = call double @sqrt(double %74) #4
  store double %75, double* %9, align 8
  %76 = getelementptr inbounds [101 x double], [101 x double]* %6, i64 0, i64 0
  store double* %76, double** %10, align 8
  store double 0.000000e+00, double* %11, align 8
  %77 = load double, double* %9, align 8
  %78 = call i32 (i8*, ...) @printf(i8* getelementptr inbounds ([7 x i8], [7 x i8]* @.str.2, i64 0, i64 0), double %77)
  br label %79

79:                                               ; preds = %70
  %80 = load i32, i32* %4, align 4
  %81 = add nsw i32 %80, 1
  store i32 %81, i32* %4, align 4
  br label %15

82:                                               ; preds = %15
  %83 = load i32, i32* %1, align 4
  ret i32 %83
}

; Function Attrs: argmemonly nounwind willreturn
declare void @llvm.memset.p0i8.i64(i8* nocapture writeonly, i8, i64, i1 immarg) #1

declare dso_local i32 @__isoc99_scanf(i8*, ...) #2

; Function Attrs: nounwind
declare dso_local double @sqrt(double) #3

declare dso_local i32 @printf(i8*, ...) #2


!llvm.module.flags = !{!0}
!llvm.ident = !{!1}

!0 = !{i32 1, !"wchar_size", i32 4}
!1 = !{!"clang version 10.0.0-4ubuntu1 "}
